; Function Attrs: mustprogress nounwind uwtable
define void @_ZN7rocksdb34BlockCacheHumanReadableTraceReaderD2Ev(ptr noundef nonnull align 8 dereferenceable(536) initializes((0, 8)) %0) unnamed_addr #1 align 2 personality ptr @__gxx_personality_v0 {
  store ptr getelementptr inbounds nuw inrange(-16, 16) (i8, ptr @_ZTVN7rocksdb34BlockCacheHumanReadableTraceReaderE, i64 16), ptr %0, align 8, !tbaa !39
  %2 = getelementptr inbounds nuw i8, ptr %0, i64 16
  %3 = getelementptr inbounds nuw i8, ptr %0, i64 32
  %4 = invoke noundef ptr @_ZNSt13basic_filebufIcSt11char_traitsIcEE5closeEv(ptr noundef nonnull align 8 dereferenceable(240) %3)
          to label %.noexc unwind label %18

.noexc:                                           ; preds = %1
  %.not.i = icmp eq ptr %4, null
  br i1 %.not.i, label %5, label %_ZNSt14basic_ifstreamIcSt11char_traitsIcEE5closeEv.exit

5:                                                ; preds = %.noexc
  %6 = load ptr, ptr %2, align 8, !tbaa !39
  %7 = getelementptr i8, ptr %6, i64 -24
  %8 = load i64, ptr %7, align 8
  %9 = getelementptr inbounds i8, ptr %2, i64 %8
  %10 = getelementptr inbounds nuw i8, ptr %9, i64 32
  %11 = load i32, ptr %10, align 8, !tbaa !115
  %12 = or i32 %11, 4
  invoke void @_ZNSt9basic_iosIcSt11char_traitsIcEE5clearESt12_Ios_Iostate(ptr noundef nonnull align 8 dereferenceable(264) %9, i32 noundef %12)
          to label %_ZNSt14basic_ifstreamIcSt11char_traitsIcEE5closeEv.exit unwind label %18

_ZNSt14basic_ifstreamIcSt11char_traitsIcEE5closeEv.exit: ; preds = %.noexc, %5
  tail call void @_ZNSt14basic_ifstreamIcSt11char_traitsIcEED1Ev(ptr noundef nonnull align 8 dereferenceable(256) %2) #28
  store ptr getelementptr inbounds nuw inrange(-16, 16) (i8, ptr @_ZTVN7rocksdb21BlockCacheTraceReaderE, i64 16), ptr %0, align 8, !tbaa !39
  %13 = getelementptr inbounds nuw i8, ptr %0, i64 8
  %14 = load ptr, ptr %13, align 8, !tbaa !79
  %.not.i.i = icmp eq ptr %14, null
  br i1 %.not.i.i, label %_ZN7rocksdb21BlockCacheTraceReaderD2Ev.exit, label %_ZNKSt14default_deleteIN7rocksdb11TraceReaderEEclEPS1_.exit.i.i

_ZNKSt14default_deleteIN7rocksdb11TraceReaderEEclEPS1_.exit.i.i: ; preds = %_ZNSt14basic_ifstreamIcSt11char_traitsIcEE5closeEv.exit
  %15 = load ptr, ptr %14, align 8, !tbaa !39
  %16 = getelementptr inbounds nuw i8, ptr %15, i64 8
  %17 = load ptr, ptr %16, align 8
  tail call void %17(ptr noundef nonnull align 8 dereferenceable(8) %14) #28
  br label %_ZN7rocksdb21BlockCacheTraceReaderD2Ev.exit

_ZN7rocksdb21BlockCacheTraceReaderD2Ev.exit:      ; preds = %_ZNSt14basic_ifstreamIcSt11char_traitsIcEE5closeEv.exit, %_ZNKSt14default_deleteIN7rocksdb11TraceReaderEEclEPS1_.exit.i.i
  store ptr null, ptr %13, align 8, !tbaa !79
  ret void

18:                                               ; preds = %5, %1
  %19 = landingpad { ptr, i32 }
          catch ptr null
  %20 = extractvalue { ptr, i32 } %19, 0
  tail call void @__clang_call_terminate(ptr %20) #30
  unreachable
}